target datalayout = "e-m:e-p270:32:32-p271:32:32-p272:64:64-i64:64-i128:128-f80:128-n8:16:32:64-S128"
target triple = "x86_64-pc-linux-gnu"

%struct.AVChannelLayout = type { i32, i32, %union.anon.1, ptr }
%union.anon.1 = type { i64 }
%struct.AVFilterContext = type { ptr, ptr, ptr, ptr, ptr, i32, ptr, ptr, i32, ptr, ptr, i32, i32, ptr, ptr, ptr, ptr, i32, ptr, i32, i32 }
%struct.ANullContext = type { ptr, %struct.AVChannelLayout, i32, i64, i32, i64 }

; Function Attrs: nounwind uwtable
define internal i32 @query_formats(ptr noundef %0, ptr noundef %1, ptr noundef %2) #0 {
  %4 = alloca i32, align 4
  %5 = alloca ptr, align 8
  %6 = alloca ptr, align 8
  %7 = alloca ptr, align 8
  %8 = alloca ptr, align 8
  %9 = alloca [2 x %struct.AVChannelLayout], align 16
  %10 = alloca [2 x i32], align 4
  %11 = alloca i32, align 4
  %12 = alloca i32, align 4
  store ptr %0, ptr %5, align 8, !tbaa !4
  store ptr %1, ptr %6, align 8, !tbaa !9
  store ptr %2, ptr %7, align 8, !tbaa !9
  call void @llvm.lifetime.start.p0(i64 8, ptr %8) #8
  %13 = load ptr, ptr %5, align 8, !tbaa !4
  %14 = getelementptr inbounds nuw %struct.AVFilterContext, ptr %13, i32 0, i32 9
  %15 = load ptr, ptr %14, align 8, !tbaa !12
  store ptr %15, ptr %8, align 8, !tbaa !24
  call void @llvm.lifetime.start.p0(i64 48, ptr %9) #8
  %16 = load ptr, ptr %8, align 8, !tbaa !24
  %17 = getelementptr inbounds nuw %struct.ANullContext, ptr %16, i32 0, i32 1
  call void @llvm.memcpy.p0.p0.i64(ptr align 8 %9, ptr align 8 %17, i64 24, i1 false), !tbaa.struct !26
  %18 = getelementptr inbounds %struct.AVChannelLayout, ptr %9, i64 1
  call void @llvm.memset.p0.i64(ptr align 8 %18, i8 0, i64 24, i1 false)
  call void @llvm.lifetime.start.p0(i64 8, ptr %10) #8
  %19 = load ptr, ptr %8, align 8, !tbaa !24
  %20 = getelementptr inbounds nuw %struct.ANullContext, ptr %19, i32 0, i32 2
  %21 = load i32, ptr %20, align 8, !tbaa !30
  store i32 %21, ptr %10, align 4, !tbaa !27
  %22 = getelementptr inbounds i32, ptr %10, i64 1
  store i32 -1, ptr %22, align 4, !tbaa !27
  call void @llvm.lifetime.start.p0(i64 4, ptr %11) #8
  %23 = load ptr, ptr %5, align 8, !tbaa !4
  %24 = load ptr, ptr %6, align 8, !tbaa !9
  %25 = load ptr, ptr %7, align 8, !tbaa !9
  %26 = getelementptr inbounds [2 x i32], ptr %10, i64 0, i64 0
  %27 = call i32 @ff_set_common_samplerates_from_list2(ptr noundef %23, ptr noundef %24, ptr noundef %25, ptr noundef %26)
  store i32 %27, ptr %11, align 4, !tbaa !27
  %28 = load i32, ptr %11, align 4, !tbaa !27
  %29 = icmp slt i32 %28, 0
  br i1 %29, label %30, label %32

30:                                               ; preds = %3
  %31 = load i32, ptr %11, align 4, !tbaa !27
  store i32 %31, ptr %4, align 4
  store i32 1, ptr %12, align 4
  br label %38

32:                                               ; preds = %3
  %33 = load ptr, ptr %5, align 8, !tbaa !4
  %34 = load ptr, ptr %6, align 8, !tbaa !9
  %35 = load ptr, ptr %7, align 8, !tbaa !9
  %36 = getelementptr inbounds [2 x %struct.AVChannelLayout], ptr %9, i64 0, i64 0
  %37 = call i32 @ff_set_common_channel_layouts_from_list2(ptr noundef %33, ptr noundef %34, ptr noundef %35, ptr noundef %36)
  store i32 %37, ptr %4, align 4
  store i32 1, ptr %12, align 4
  br label %38

38:                                               ; preds = %32, %30
  call void @llvm.lifetime.end.p0(i64 4, ptr %11) #8
  call void @llvm.lifetime.end.p0(i64 8, ptr %10) #8
  call void @llvm.lifetime.end.p0(i64 48, ptr %9) #8
  call void @llvm.lifetime.end.p0(i64 8, ptr %8) #8
  %39 = load i32, ptr %4, align 4
  ret i32 %39
}