; Function Attrs: nounwind uwtable
define internal i32 @query_formats(ptr noundef %0, ptr noundef %1, ptr noundef %2) #0 {
  %4 = alloca [2 x %struct.AVChannelLayout], align 16
  %5 = alloca [2 x i32], align 4
  %6 = getelementptr inbounds nuw i8, ptr %0, i64 72
  %7 = load ptr, ptr %6, align 8, !tbaa !4
  call void @llvm.lifetime.start.p0(i64 48, ptr nonnull %4) #8
  %8 = getelementptr inbounds nuw i8, ptr %7, i64 8
  call void @llvm.memcpy.p0.p0.i64(ptr noundef nonnull align 16 dereferenceable(24) %4, ptr noundef nonnull align 8 dereferenceable(24) %8, i64 24, i1 false), !tbaa.struct !20
  %9 = getelementptr inbounds nuw i8, ptr %4, i64 24
  call void @llvm.memset.p0.i64(ptr noundef nonnull align 8 dereferenceable(24) %9, i8 0, i64 24, i1 false)
  call void @llvm.lifetime.start.p0(i64 8, ptr nonnull %5) #8
  %10 = getelementptr inbounds nuw i8, ptr %7, i64 32
  %11 = load i32, ptr %10, align 8, !tbaa !24
  store i32 %11, ptr %5, align 4, !tbaa !21
  %12 = getelementptr inbounds nuw i8, ptr %5, i64 4
  store i32 -1, ptr %12, align 4, !tbaa !21
  %13 = call i32 @ff_set_common_samplerates_from_list2(ptr noundef %0, ptr noundef %1, ptr noundef %2, ptr noundef nonnull %5) #8
  %14 = icmp slt i32 %13, 0
  br i1 %14, label %17, label %15

15:                                               ; preds = %3
  %16 = call i32 @ff_set_common_channel_layouts_from_list2(ptr noundef nonnull %0, ptr noundef %1, ptr noundef %2, ptr noundef nonnull %4) #8
  br label %17

17:                                               ; preds = %3, %15
  %.0 = phi i32 [ %16, %15 ], [ %13, %3 ]
  call void @llvm.lifetime.end.p0(i64 8, ptr nonnull %5) #8
  call void @llvm.lifetime.end.p0(i64 48, ptr nonnull %4) #8
  ret i32 %.0
}